TN:
SF:/home/edward/projects/Smoke-Simulation/src/ODF/Math/SquareMatrix.h
FN:68,_ZN3ODF4Math12SquareMatrixILm4EE8IdentityEv
FNDA:0,_ZN3ODF4Math12SquareMatrixILm4EE8IdentityEv
DA:68,0
DA:70,0
DA:71,0
DA:73,0
DA:75,0
DA:78,0
end_of_record
SF:/usr/include/c++/11/iostream
end_of_record
SF:/home/edward/projects/Smoke-Simulation/src/ODF/Math/Matrix4x4.h
end_of_record
SF:/home/edward/projects/Smoke-Simulation/src/ODF/Math/Matrix.h
FN:44,_ZN3ODF4Math6MatrixILm4ELm4EEC2Ev
FNDA:0,_ZN3ODF4Math6MatrixILm4ELm4EEC2Ev
FN:55,_ZN3ODF4Math6MatrixILm4ELm4EEC2ERS2_
FNDA:0,_ZN3ODF4Math6MatrixILm4ELm4EEC2ERS2_
FN:65,_ZN3ODF4Math6MatrixILm4ELm4EEC2EOS2_
FNDA:0,_ZN3ODF4Math6MatrixILm4ELm4EEC2EOS2_
FN:86,_ZN3ODF4Math6MatrixILm4ELm4EEaSERKS2_
FNDA:0,_ZN3ODF4Math6MatrixILm4ELm4EEaSERKS2_
FN:103,_ZN3ODF4Math6MatrixILm4ELm4EEmLERKS2_
FNDA:0,_ZN3ODF4Math6MatrixILm4ELm4EEmLERKS2_
FN:126,_ZNK3ODF4Math6MatrixILm4ELm4EEclEmm
FNDA:0,_ZNK3ODF4Math6MatrixILm4ELm4EEclEmm
FN:140,_ZN3ODF4Math6MatrixILm4ELm4EEclEmm
FNDA:0,_ZN3ODF4Math6MatrixILm4ELm4EEclEmm
FN:153,_ZN3ODF4Math6MatrixILm4ELm4EE5ClearEv
FNDA:0,_ZN3ODF4Math6MatrixILm4ELm4EE5ClearEv
DA:44,0
DA:46,0
DA:47,0
DA:55,0
DA:57,0
DA:58,0
DA:65,0
DA:69,0
DA:70,0
DA:86,0
DA:88,0
DA:90,0
DA:94,0
DA:103,0
DA:105,0
DA:107,0
DA:109,0
DA:111,0
DA:112,0
DA:116,0
DA:126,0
DA:128,0
DA:129,0
DA:130,0
DA:140,0
DA:142,0
DA:143,0
DA:144,0
DA:153,0
DA:155,0
DA:156,0
end_of_record
SF:/home/edward/projects/Smoke-Simulation/src/ODF/Math/Vector.h
FN:82,_ZNK3ODF4Math6VectorILm3EEixEm
FNDA:0,_ZNK3ODF4Math6VectorILm3EEixEm
DA:82,0
DA:84,0
DA:85,0
end_of_record
SF:/home/edward/projects/Smoke-Simulation/src/ODF/Math/Matrix4x4.cpp
FN:8,_ZN3ODF4Math9Matrix4x4aSERKNS0_12SquareMatrixILm4EEE
FNDA:1,_ZN3ODF4Math9Matrix4x4aSERKNS0_12SquareMatrixILm4EEE
FN:14,_ZN3ODF4Math9Matrix4x4mLERKS1_
FNDA:0,_ZN3ODF4Math9Matrix4x4mLERKS1_
FN:20,_ZN3ODF4Math9Matrix4x412AxisRotationERKNS0_6VectorILm3EEEd
FNDA:0,_ZN3ODF4Math9Matrix4x412AxisRotationERKNS0_6VectorILm3EEEd
FN:49,_ZN3ODF4Math9Matrix4x415MakeTranslationERKNS0_6VectorILm3EEE
FNDA:0,_ZN3ODF4Math9Matrix4x415MakeTranslationERKNS0_6VectorILm3EEE
FN:60,_ZN3ODF4Math9Matrix4x49MakeScaleEOKNS0_6VectorILm3EEE
FNDA:0,_ZN3ODF4Math9Matrix4x49MakeScaleEOKNS0_6VectorILm3EEE
FN:71,_ZN3ODF4Math9Matrix4x413MakeXRotationEd
FNDA:0,_ZN3ODF4Math9Matrix4x413MakeXRotationEd
FN:82,_ZN3ODF4Math9Matrix4x413MakeYRotationEd
FNDA:0,_ZN3ODF4Math9Matrix4x413MakeYRotationEd
FN:93,_ZN3ODF4Math9Matrix4x413MakeZRotationEd
FNDA:0,_ZN3ODF4Math9Matrix4x413MakeZRotationEd
FN:105,_ZN3ODF4Math9Matrix4x416MakeAxisRotationERKNS0_6VectorILm3EEEd
FNDA:0,_ZN3ODF4Math9Matrix4x416MakeAxisRotationERKNS0_6VectorILm3EEEd
DA:8,1
DA:10,1
DA:11,1
DA:14,0
DA:16,0
DA:17,0
DA:20,0
DA:22,0
DA:23,0
DA:24,0
DA:25,0
DA:26,0
DA:27,0
DA:28,0
DA:29,0
DA:30,0
DA:31,0
DA:32,0
DA:33,0
DA:35,0
DA:36,0
DA:37,0
DA:38,0
DA:39,0
DA:40,0
DA:41,0
DA:42,0
DA:43,0
DA:44,0
DA:46,0
DA:49,0
DA:51,0
DA:52,0
DA:53,0
DA:54,0
DA:55,0
DA:56,0
DA:60,0
DA:62,0
DA:63,0
DA:64,0
DA:65,0
DA:66,0
DA:67,0
DA:71,0
DA:73,0
DA:74,0
DA:75,0
DA:76,0
DA:77,0
DA:78,0
DA:79,0
DA:82,0
DA:84,0
DA:85,0
DA:86,0
DA:87,0
DA:88,0
DA:89,0
DA:90,0
DA:93,0
DA:95,0
DA:96,0
DA:97,0
DA:98,0
DA:99,0
DA:100,0
DA:101,0
DA:105,0
DA:107,0
DA:108,0
DA:110,0
DA:111,0
DA:112,0
DA:114,0
DA:115,0
DA:116,0
DA:117,0
DA:118,0
DA:119,0
DA:120,0
DA:121,0
DA:123,0
DA:124,0
DA:125,0
DA:127,0
DA:128,0
DA:129,0
DA:131,0
DA:132,0
DA:133,0
DA:135,0
end_of_record
